target datalayout = "e-m:e-p270:32:32-p271:32:32-p272:64:64-i64:64-i128:128-f80:128-n8:16:32:64-S128"
target triple = "x86_64-pc-linux-gnu"

%class.Register = type { i32 }
%class.XMMRegister = type { i32 }

; Function Attrs: mustprogress nounwind uwtable
define hidden void @_ZN17C2_MacroAssembler7vinsertE9BasicType11XMMRegisterS1_8Registeri(ptr noundef nonnull align 8 dereferenceable(40) %0, i8 noundef zeroext %1, i32 %2, i32 %3, i32 %4, i32 noundef %5) #1 align 2 {
  %7 = alloca %class.XMMRegister, align 4
  %8 = alloca %class.XMMRegister, align 4
  %9 = alloca %class.Register, align 4
  %10 = alloca ptr, align 8
  %11 = alloca i8, align 1
  %12 = alloca i32, align 4
  %13 = alloca %class.XMMRegister, align 4
  %14 = alloca %class.XMMRegister, align 4
  %15 = alloca %class.Register, align 4
  %16 = alloca %class.XMMRegister, align 4
  %17 = alloca %class.XMMRegister, align 4
  %18 = alloca %class.Register, align 4
  %19 = alloca %class.XMMRegister, align 4
  %20 = alloca %class.XMMRegister, align 4
  %21 = alloca %class.Register, align 4
  %22 = alloca %class.XMMRegister, align 4
  %23 = alloca %class.XMMRegister, align 4
  %24 = alloca %class.Register, align 4
  %25 = getelementptr inbounds %class.XMMRegister, ptr %7, i32 0, i32 0
  store i32 %2, ptr %25, align 4
  %26 = getelementptr inbounds %class.XMMRegister, ptr %8, i32 0, i32 0
  store i32 %3, ptr %26, align 4
  %27 = getelementptr inbounds %class.Register, ptr %9, i32 0, i32 0
  store i32 %4, ptr %27, align 4
  store ptr %0, ptr %10, align 8
  store i8 %1, ptr %11, align 1
  store i32 %5, ptr %12, align 4
  %28 = load ptr, ptr %10, align 8
  %29 = load i8, ptr %11, align 1
  %30 = zext i8 %29 to i32
  switch i32 %30, label %63 [
    i32 8, label %31
    i32 9, label %39
    i32 10, label %47
    i32 11, label %55
  ]

31:                                               ; preds = %6
  call void @llvm.memcpy.p0.p0.i64(ptr align 4 %13, ptr align 4 %7, i64 4, i1 false)
  call void @llvm.memcpy.p0.p0.i64(ptr align 4 %14, ptr align 4 %8, i64 4, i1 false)
  call void @llvm.memcpy.p0.p0.i64(ptr align 4 %15, ptr align 4 %9, i64 4, i1 false)
  %32 = load i32, ptr %12, align 4
  %33 = getelementptr inbounds %class.XMMRegister, ptr %13, i32 0, i32 0
  %34 = load i32, ptr %33, align 4
  %35 = getelementptr inbounds %class.XMMRegister, ptr %14, i32 0, i32 0
  %36 = load i32, ptr %35, align 4
  %37 = getelementptr inbounds %class.Register, ptr %15, i32 0, i32 0
  %38 = load i32, ptr %37, align 4
  call void @_ZN9Assembler7vpinsrbE11XMMRegisterS0_8Registeri(ptr noundef nonnull align 8 dereferenceable(40) %28, i32 %34, i32 %36, i32 %38, i32 noundef %32)
  br label %64

39:                                               ; preds = %6
  call void @llvm.memcpy.p0.p0.i64(ptr align 4 %16, ptr align 4 %7, i64 4, i1 false)
  call void @llvm.memcpy.p0.p0.i64(ptr align 4 %17, ptr align 4 %8, i64 4, i1 false)
  call void @llvm.memcpy.p0.p0.i64(ptr align 4 %18, ptr align 4 %9, i64 4, i1 false)
  %40 = load i32, ptr %12, align 4
  %41 = getelementptr inbounds %class.XMMRegister, ptr %16, i32 0, i32 0
  %42 = load i32, ptr %41, align 4
  %43 = getelementptr inbounds %class.XMMRegister, ptr %17, i32 0, i32 0
  %44 = load i32, ptr %43, align 4
  %45 = getelementptr inbounds %class.Register, ptr %18, i32 0, i32 0
  %46 = load i32, ptr %45, align 4
  call void @_ZN9Assembler7vpinsrwE11XMMRegisterS0_8Registeri(ptr noundef nonnull align 8 dereferenceable(40) %28, i32 %42, i32 %44, i32 %46, i32 noundef %40)
  br label %64

47:                                               ; preds = %6
  call void @llvm.memcpy.p0.p0.i64(ptr align 4 %19, ptr align 4 %7, i64 4, i1 false)
  call void @llvm.memcpy.p0.p0.i64(ptr align 4 %20, ptr align 4 %8, i64 4, i1 false)
  call void @llvm.memcpy.p0.p0.i64(ptr align 4 %21, ptr align 4 %9, i64 4, i1 false)
  %48 = load i32, ptr %12, align 4
  %49 = getelementptr inbounds %class.XMMRegister, ptr %19, i32 0, i32 0
  %50 = load i32, ptr %49, align 4
  %51 = getelementptr inbounds %class.XMMRegister, ptr %20, i32 0, i32 0
  %52 = load i32, ptr %51, align 4
  %53 = getelementptr inbounds %class.Register, ptr %21, i32 0, i32 0
  %54 = load i32, ptr %53, align 4
  call void @_ZN9Assembler7vpinsrdE11XMMRegisterS0_8Registeri(ptr noundef nonnull align 8 dereferenceable(40) %28, i32 %50, i32 %52, i32 %54, i32 noundef %48)
  br label %64

55:                                               ; preds = %6
  call void @llvm.memcpy.p0.p0.i64(ptr align 4 %22, ptr align 4 %7, i64 4, i1 false)
  call void @llvm.memcpy.p0.p0.i64(ptr align 4 %23, ptr align 4 %8, i64 4, i1 false)
  call void @llvm.memcpy.p0.p0.i64(ptr align 4 %24, ptr align 4 %9, i64 4, i1 false)
  %56 = load i32, ptr %12, align 4
  %57 = getelementptr inbounds %class.XMMRegister, ptr %22, i32 0, i32 0
  %58 = load i32, ptr %57, align 4
  %59 = getelementptr inbounds %class.XMMRegister, ptr %23, i32 0, i32 0
  %60 = load i32, ptr %59, align 4
  %61 = getelementptr inbounds %class.Register, ptr %24, i32 0, i32 0
  %62 = load i32, ptr %61, align 4
  call void @_ZN9Assembler7vpinsrqE11XMMRegisterS0_8Registeri(ptr noundef nonnull align 8 dereferenceable(40) %28, i32 %58, i32 %60, i32 %62, i32 noundef %56)
  br label %64

63:                                               ; preds = %6
  br label %64

64:                                               ; preds = %63, %55, %47, %39, %31
  ret void
}