; Function Attrs: mustprogress nounwind uwtable
define hidden void @_ZN17C2_MacroAssembler7vinsertE9BasicType11XMMRegisterS1_8Registeri(ptr noundef nonnull align 8 dereferenceable(40) %0, i8 noundef zeroext %1, i32 %2, i32 %3, i32 %4, i32 noundef %5) local_unnamed_addr #0 align 2 {
  switch i8 %1, label %11 [
    i8 8, label %7
    i8 9, label %8
    i8 10, label %9
    i8 11, label %10
  ]

7:                                                ; preds = %6
  tail call void @_ZN9Assembler7vpinsrbE11XMMRegisterS0_8Registeri(ptr noundef nonnull align 8 dereferenceable(40) %0, i32 %2, i32 %3, i32 %4, i32 noundef %5) #11
  br label %11

8:                                                ; preds = %6
  tail call void @_ZN9Assembler7vpinsrwE11XMMRegisterS0_8Registeri(ptr noundef nonnull align 8 dereferenceable(40) %0, i32 %2, i32 %3, i32 %4, i32 noundef %5) #11
  br label %11

9:                                                ; preds = %6
  tail call void @_ZN9Assembler7vpinsrdE11XMMRegisterS0_8Registeri(ptr noundef nonnull align 8 dereferenceable(40) %0, i32 %2, i32 %3, i32 %4, i32 noundef %5) #11
  br label %11

10:                                               ; preds = %6
  tail call void @_ZN9Assembler7vpinsrqE11XMMRegisterS0_8Registeri(ptr noundef nonnull align 8 dereferenceable(40) %0, i32 %2, i32 %3, i32 %4, i32 noundef %5) #11
  br label %11

11:                                               ; preds = %6, %10, %9, %8, %7
  ret void
}